target datalayout = "e-m:e-p270:32:32-p271:32:32-p272:64:64-i64:64-i128:128-f80:128-n8:16:32:64-S128"
target triple = "x86_64-pc-linux-gnu"

%struct.expert_field = type { i32, i32 }
%struct._packet_info = type { ptr, ptr, i32, i32, %struct.nstime_t, %struct.nstime_t, %struct.nstime_t, i8, ptr, ptr, ptr, ptr, %struct._address, %struct._address, %struct._address, %struct._address, %struct._address, %struct._address, i32, ptr, i8, [3 x i8], %struct.anon, i32, i32, i32, i32, ptr, i8, ptr, ptr, i16, i16, i32, i32, i16, i32, i32, ptr, ptr, ptr, i8, i8, i16, i16, i16, i32, i16, i16, ptr, ptr, ptr, ptr, ptr, i32, i32 }
%struct.nstime_t = type { i64, i32 }
%struct._address = type { i32, i32, ptr, ptr }
%struct.anon = type { i8, [3 x i8] }

@.str = private unnamed_addr constant [5 x i8] c"Data\00", align 1
@hf_cemi_mc = internal global i32 0, align 4
@hf_cemi_oi = internal global i32 0, align 4
@ett_cemi = internal global i32 0, align 4
@.str.102 = private unnamed_addr constant [5 x i8] c"cEMI\00", align 1
@proto_cemi = internal global i32 0, align 4
@.str.327 = private unnamed_addr constant [2 x i8] c" \00", align 1
@ei_knxip_error = external global %struct.expert_field, align 4
@.str.328 = private unnamed_addr constant [21 x i8] c"Expected: min 1 byte\00", align 1
@.str.329 = private unnamed_addr constant [4 x i8] c" %s\00", align 1
@.str.330 = private unnamed_addr constant [3 x i8] c" $\00", align 1
@.str.331 = private unnamed_addr constant [4 x i8] c", $\00", align 1
@.str.332 = private unnamed_addr constant [3 x i8] c"? \00", align 1
@.str.333 = private unnamed_addr constant [11 x i8] c"Unexpected\00", align 1
@knxip_error = external global i8, align 1
@.str.334 = private unnamed_addr constant [35 x i8] c"? Object Instance: expected 1 byte\00", align 1
@.str.335 = private unnamed_addr constant [7 x i8] c" OI=%u\00", align 1
@.str.336 = private unnamed_addr constant [8 x i8] c", OI=%u\00", align 1

; Function Attrs: null_pointer_is_valid sspstrong uwtable
define internal void @dissect_cemi_mgmt_packet(ptr noundef %0, ptr noundef %1, ptr noundef %2, ptr noundef %3, i8 noundef zeroext %4, ptr noundef %5, i32 noundef %6, ptr noundef %7, ptr noundef %8) #0 {
  %10 = alloca ptr, align 8
  %11 = alloca ptr, align 8
  %12 = alloca ptr, align 8
  %13 = alloca ptr, align 8
  %14 = alloca i8, align 1
  %15 = alloca ptr, align 8
  %16 = alloca i32, align 4
  %17 = alloca ptr, align 8
  %18 = alloca ptr, align 8
  %19 = alloca ptr, align 8
  %20 = alloca i32, align 4
  %21 = alloca i8, align 1
  %22 = alloca i8, align 1
  %23 = alloca i8, align 1
  %24 = alloca i16, align 2
  %25 = alloca i8, align 1
  store ptr %0, ptr %10, align 8
  store ptr %1, ptr %11, align 8
  store ptr %2, ptr %12, align 8
  store ptr %3, ptr %13, align 8
  store i8 %4, ptr %14, align 1
  store ptr %5, ptr %15, align 8
  store i32 %6, ptr %16, align 4
  store ptr %7, ptr %17, align 8
  store ptr %8, ptr %18, align 8
  call void @llvm.lifetime.start.p0(i64 8, ptr %19) #9
  %26 = load ptr, ptr %11, align 8
  %27 = getelementptr inbounds nuw %struct._packet_info, ptr %26, i32 0, i32 1
  %28 = load ptr, ptr %27, align 8
  store ptr %28, ptr %19, align 8
  call void @llvm.lifetime.start.p0(i64 4, ptr %20) #9
  %29 = load ptr, ptr %15, align 8
  %30 = load i32, ptr %29, align 4
  store i32 %30, ptr %20, align 4
  call void @llvm.lifetime.start.p0(i64 1, ptr %21) #9
  %31 = load ptr, ptr %17, align 8
  %32 = load i8, ptr %31, align 1
  store i8 %32, ptr %21, align 1
  call void @llvm.lifetime.start.p0(i64 1, ptr %22) #9
  %33 = load ptr, ptr %18, align 8
  %34 = load i8, ptr %33, align 1
  store i8 %34, ptr %22, align 1
  call void @llvm.lifetime.start.p0(i64 1, ptr %23) #9
  store i8 1, ptr %23, align 1
  %35 = load i8, ptr %14, align 1
  %36 = zext i8 %35 to i32
  switch i32 %36, label %44 [
    i32 252, label %37
    i32 245, label %38
    i32 251, label %39
    i32 246, label %40
    i32 247, label %40
    i32 248, label %42
    i32 249, label %42
    i32 250, label %42
    i32 241, label %43
    i32 240, label %43
  ]

37:                                               ; preds = %9
  store i8 0, ptr %21, align 1
  br label %41

38:                                               ; preds = %9
  store i8 1, ptr %21, align 1
  br label %41

39:                                               ; preds = %9
  store i8 3, ptr %21, align 1
  br label %41

40:                                               ; preds = %9, %9
  br label %41

41:                                               ; preds = %40, %39, %38, %37
  store i8 7, ptr %23, align 1
  br label %44

42:                                               ; preds = %9, %9, %9
  store i8 5, ptr %23, align 1
  br label %44

43:                                               ; preds = %9, %9
  store i8 0, ptr %21, align 1
  br label %44

44:                                               ; preds = %9, %43, %42, %41
  %45 = load i8, ptr %23, align 1
  %46 = zext i8 %45 to i32
  %47 = icmp sge i32 %46, 5
  br i1 %47, label %48, label %101

48:                                               ; preds = %44
  call void @llvm.lifetime.start.p0(i64 2, ptr %24) #9
  %49 = load ptr, ptr %10, align 8
  %50 = load ptr, ptr %11, align 8
  %51 = load ptr, ptr %12, align 8
  %52 = load ptr, ptr %13, align 8
  %53 = load i32, ptr %16, align 4
  %54 = call zeroext i16 @dissect_ot(ptr noundef %49, ptr noundef %50, ptr noundef %51, ptr noundef %52, ptr noundef %20, i32 noundef %53, ptr noundef %22)
  store i16 %54, ptr %24, align 2
  %55 = load i32, ptr %16, align 4
  %56 = icmp slt i32 %55, 4
  br i1 %56, label %57, label %63

57:                                               ; preds = %48
  %58 = load ptr, ptr %13, align 8
  %59 = load ptr, ptr %11, align 8
  %60 = load ptr, ptr %10, align 8
  %61 = load i32, ptr %20, align 4
  %62 = call ptr (ptr, ptr, ptr, ptr, i32, i32, ptr, ...) @proto_tree_add_expert_format(ptr noundef %58, ptr noundef %59, ptr noundef @ei_knxip_error, ptr noundef %60, i32 noundef %61, i32 noundef 0, ptr noundef @.str.334)
  store i8 1, ptr %22, align 1
  br label %81

63:                                               ; preds = %48
  call void @llvm.lifetime.start.p0(i64 1, ptr %25) #9
  %64 = load ptr, ptr %10, align 8
  %65 = call zeroext i8 @tvb_get_uint8(ptr noundef %64, i32 noundef 3)
  store i8 %65, ptr %25, align 1
  %66 = load i8, ptr %25, align 1
  %67 = zext i8 %66 to i32
  %68 = icmp ne i32 %67, 1
  br i1 %68, label %69, label %76

69:                                               ; preds = %63
  %70 = load ptr, ptr %19, align 8
  %71 = load i8, ptr %25, align 1
  %72 = zext i8 %71 to i32
  call void (ptr, i32, ptr, ...) @col_append_fstr(ptr noundef %70, i32 noundef 25, ptr noundef @.str.335, i32 noundef %72)
  %73 = load ptr, ptr %12, align 8
  %74 = load i8, ptr %25, align 1
  %75 = zext i8 %74 to i32
  call void (ptr, ptr, ...) @proto_item_append_text(ptr noundef %73, ptr noundef @.str.336, i32 noundef %75)
  br label %76

76:                                               ; preds = %69, %63
  %77 = load ptr, ptr %13, align 8
  %78 = load i32, ptr @hf_cemi_oi, align 4
  %79 = load ptr, ptr %10, align 8
  %80 = call ptr @proto_tree_add_item(ptr noundef %77, i32 noundef %78, ptr noundef %79, i32 noundef 3, i32 noundef 1, i32 noundef 0)
  store i32 4, ptr %20, align 4
  call void @llvm.lifetime.end.p0(i64 1, ptr %25) #9
  br label %81

81:                                               ; preds = %76, %57
  %82 = load ptr, ptr %10, align 8
  %83 = load ptr, ptr %11, align 8
  %84 = load ptr, ptr %12, align 8
  %85 = load ptr, ptr %13, align 8
  %86 = load i32, ptr %16, align 4
  %87 = load i16, ptr %24, align 2
  %88 = zext i16 %87 to i32
  %89 = call zeroext i8 @dissect_pid(ptr noundef %82, ptr noundef %83, ptr noundef %84, ptr noundef %85, ptr noundef %20, i32 noundef %86, i32 noundef %88, i8 noundef zeroext 1, ptr noundef %22)
  %90 = load i8, ptr %23, align 1
  %91 = zext i8 %90 to i32
  %92 = icmp sge i32 %91, 7
  br i1 %92, label %93, label %100

93:                                               ; preds = %81
  %94 = load ptr, ptr %10, align 8
  %95 = load ptr, ptr %11, align 8
  %96 = load ptr, ptr %12, align 8
  %97 = load ptr, ptr %13, align 8
  %98 = load i32, ptr %16, align 4
  %99 = load i8, ptr %21, align 1
  call void @dissect_range(ptr noundef %94, ptr noundef %95, ptr noundef %96, ptr noundef %97, ptr noundef %20, i32 noundef %98, i8 noundef zeroext %99, ptr noundef %22)
  store i8 0, ptr %21, align 1
  br label %100

100:                                              ; preds = %93, %81
  call void @llvm.lifetime.end.p0(i64 2, ptr %24) #9
  br label %101

101:                                              ; preds = %100, %44
  %102 = load i32, ptr %20, align 4
  %103 = load ptr, ptr %15, align 8
  store i32 %102, ptr %103, align 4
  %104 = load i8, ptr %21, align 1
  %105 = load ptr, ptr %17, align 8
  store i8 %104, ptr %105, align 1
  %106 = load i8, ptr %22, align 1
  %107 = load ptr, ptr %18, align 8
  store i8 %106, ptr %107, align 1
  call void @llvm.lifetime.end.p0(i64 1, ptr %23) #9
  call void @llvm.lifetime.end.p0(i64 1, ptr %22) #9
  call void @llvm.lifetime.end.p0(i64 1, ptr %21) #9
  call void @llvm.lifetime.end.p0(i64 4, ptr %20) #9
  call void @llvm.lifetime.end.p0(i64 8, ptr %19) #9
  ret void
}

; Function Attrs: null_pointer_is_valid sspstrong uwtable
define internal i32 @dissect_cemi(ptr noundef %0, ptr noundef %1, ptr noundef %2, ptr noundef %3) #0 {
  %5 = alloca ptr, align 8
  %6 = alloca ptr, align 8
  %7 = alloca ptr, align 8
  %8 = alloca ptr, align 8
  %9 = alloca i32, align 4
  %10 = alloca i32, align 4
  %11 = alloca i8, align 1
  %12 = alloca ptr, align 8
  %13 = alloca ptr, align 8
  %14 = alloca ptr, align 8
  %15 = alloca i8, align 1
  %16 = alloca i8, align 1
  %17 = alloca ptr, align 8
  %18 = alloca ptr, align 8
  store ptr %0, ptr %5, align 8
  store ptr %1, ptr %6, align 8
  store ptr %2, ptr %7, align 8
  store ptr %3, ptr %8, align 8
  call void @llvm.lifetime.start.p0(i64 4, ptr %9) #9
  store i32 0, ptr %9, align 4
  call void @llvm.lifetime.start.p0(i64 4, ptr %10) #9
  %19 = load ptr, ptr %5, align 8
  %20 = call i32 @tvb_captured_length_remaining(ptr noundef %19, i32 noundef 0)
  store i32 %20, ptr %10, align 4
  call void @llvm.lifetime.start.p0(i64 1, ptr %11) #9
  store i8 0, ptr %11, align 1
  call void @llvm.lifetime.start.p0(i64 8, ptr %12) #9
  %21 = load ptr, ptr %6, align 8
  %22 = getelementptr inbounds nuw %struct._packet_info, ptr %21, i32 0, i32 1
  %23 = load ptr, ptr %22, align 8
  store ptr %23, ptr %12, align 8
  call void @llvm.lifetime.start.p0(i64 8, ptr %13) #9
  %24 = load ptr, ptr %7, align 8
  %25 = load i32, ptr @proto_cemi, align 4
  %26 = load ptr, ptr %5, align 8
  %27 = load i32, ptr %10, align 4
  %28 = call ptr @proto_tree_add_item(ptr noundef %24, i32 noundef %25, ptr noundef %26, i32 noundef 0, i32 noundef %27, i32 noundef 0)
  store ptr %28, ptr %13, align 8
  call void @llvm.lifetime.start.p0(i64 8, ptr %14) #9
  %29 = load ptr, ptr %13, align 8
  %30 = load i32, ptr @ett_cemi, align 4
  %31 = call ptr @proto_item_add_subtree(ptr noundef %29, i32 noundef %30)
  store ptr %31, ptr %14, align 8
  call void @llvm.lifetime.start.p0(i64 1, ptr %15) #9
  store i8 2, ptr %15, align 1
  %32 = load ptr, ptr %12, align 8
  call void @col_append_str(ptr noundef %32, i32 noundef 25, ptr noundef @.str.327)
  %33 = load ptr, ptr %13, align 8
  call void (ptr, ptr, ...) @proto_item_set_text(ptr noundef %33, ptr noundef @.str.102)
  %34 = load i32, ptr %10, align 4
  %35 = icmp sle i32 %34, 0
  br i1 %35, label %36, label %40

36:                                               ; preds = %4
  %37 = load ptr, ptr %6, align 8
  %38 = load ptr, ptr %13, align 8
  %39 = call ptr (ptr, ptr, ptr, ptr, ...) @expert_add_info_format(ptr noundef %37, ptr noundef %38, ptr noundef @ei_knxip_error, ptr noundef @.str.328)
  store i8 1, ptr %11, align 1
  br label %79

40:                                               ; preds = %4
  call void @llvm.lifetime.start.p0(i64 1, ptr %16) #9
  %41 = load ptr, ptr %5, align 8
  %42 = call zeroext i8 @tvb_get_uint8(ptr noundef %41, i32 noundef 0)
  store i8 %42, ptr %16, align 1
  call void @llvm.lifetime.start.p0(i64 8, ptr %17) #9
  %43 = load i8, ptr %16, align 1
  %44 = zext i8 %43 to i32
  %45 = call ptr @try_val_to_str(i32 noundef %44, ptr noundef @mc_vals)
  store ptr %45, ptr %17, align 8
  %46 = load ptr, ptr %17, align 8
  %47 = icmp ne ptr %46, null
  br i1 %47, label %50, label %48

48:                                               ; preds = %40
  %49 = load ptr, ptr %12, align 8
  call void @col_append_str(ptr noundef %49, i32 noundef 25, ptr noundef @.str.102)
  store i8 0, ptr %15, align 1
  br label %78

50:                                               ; preds = %40
  %51 = load ptr, ptr %12, align 8
  %52 = load ptr, ptr %17, align 8
  call void @col_append_str(ptr noundef %51, i32 noundef 25, ptr noundef %52)
  %53 = load ptr, ptr %13, align 8
  %54 = load ptr, ptr %17, align 8
  call void (ptr, ptr, ...) @proto_item_append_text(ptr noundef %53, ptr noundef @.str.329, ptr noundef %54)
  %55 = load ptr, ptr %14, align 8
  %56 = load i32, ptr @hf_cemi_mc, align 4
  %57 = load ptr, ptr %5, align 8
  %58 = call ptr @proto_tree_add_item(ptr noundef %55, i32 noundef %56, ptr noundef %57, i32 noundef 0, i32 noundef 1, i32 noundef 0)
  store i32 1, ptr %9, align 4
  %59 = load i8, ptr %16, align 1
  %60 = zext i8 %59 to i32
  %61 = icmp sge i32 %60, 240
  br i1 %61, label %62, label %69

62:                                               ; preds = %50
  %63 = load ptr, ptr %5, align 8
  %64 = load ptr, ptr %6, align 8
  %65 = load ptr, ptr %13, align 8
  %66 = load ptr, ptr %14, align 8
  %67 = load i8, ptr %16, align 1
  %68 = load i32, ptr %10, align 4
  call void @dissect_cemi_mgmt_packet(ptr noundef %63, ptr noundef %64, ptr noundef %65, ptr noundef %66, i8 noundef zeroext %67, ptr noundef %9, i32 noundef %68, ptr noundef %15, ptr noundef %11)
  br label %77

69:                                               ; preds = %50
  %70 = load ptr, ptr %5, align 8
  %71 = load ptr, ptr %6, align 8
  %72 = load ptr, ptr %7, align 8
  %73 = load ptr, ptr %13, align 8
  %74 = load ptr, ptr %14, align 8
  %75 = load i8, ptr %16, align 1
  %76 = load i32, ptr %10, align 4
  call void @dissect_cemi_link_layer(ptr noundef %70, ptr noundef %71, ptr noundef %72, ptr noundef %73, ptr noundef %74, i8 noundef zeroext %75, ptr noundef %9, i32 noundef %76, ptr noundef %15, ptr noundef %11)
  br label %77

77:                                               ; preds = %69, %62
  br label %78

78:                                               ; preds = %77, %48
  call void @llvm.lifetime.end.p0(i64 8, ptr %17) #9
  call void @llvm.lifetime.end.p0(i64 1, ptr %16) #9
  br label %79

79:                                               ; preds = %78, %36
  %80 = load i32, ptr %9, align 4
  %81 = load i32, ptr %10, align 4
  %82 = icmp slt i32 %80, %81
  br i1 %82, label %83, label %102

83:                                               ; preds = %79
  call void @llvm.lifetime.start.p0(i64 8, ptr %18) #9
  %84 = load ptr, ptr %14, align 8
  %85 = load ptr, ptr %5, align 8
  %86 = load i32, ptr %9, align 4
  %87 = load i32, ptr %10, align 4
  %88 = load i32, ptr %9, align 4
  %89 = sub i32 %87, %88
  %90 = load ptr, ptr %12, align 8
  %91 = load ptr, ptr %13, align 8
  %92 = call ptr @proto_tree_add_data(ptr noundef %84, ptr noundef %85, i32 noundef %86, i32 noundef %89, ptr noundef %90, ptr noundef %91, ptr noundef @.str, ptr noundef @.str.330, ptr noundef @.str.331)
  store ptr %92, ptr %18, align 8
  %93 = load i8, ptr %15, align 1
  %94 = icmp ne i8 %93, 0
  br i1 %94, label %100, label %95

95:                                               ; preds = %83
  %96 = load ptr, ptr %18, align 8
  call void (ptr, ptr, ...) @proto_item_prepend_text(ptr noundef %96, ptr noundef @.str.332)
  %97 = load ptr, ptr %6, align 8
  %98 = load ptr, ptr %18, align 8
  %99 = call ptr (ptr, ptr, ptr, ptr, ...) @expert_add_info_format(ptr noundef %97, ptr noundef %98, ptr noundef @ei_knxip_error, ptr noundef @.str.333)
  store i8 1, ptr %11, align 1
  br label %100

100:                                              ; preds = %95, %83
  %101 = load i32, ptr %10, align 4
  store i32 %101, ptr %9, align 4
  call void @llvm.lifetime.end.p0(i64 8, ptr %18) #9
  br label %102

102:                                              ; preds = %100, %79
  %103 = load i8, ptr %11, align 1
  %104 = icmp ne i8 %103, 0
  br i1 %104, label %105, label %112

105:                                              ; preds = %102
  %106 = load i8, ptr @knxip_error, align 1
  %107 = icmp ne i8 %106, 0
  br i1 %107, label %110, label %108

108:                                              ; preds = %105
  store i8 1, ptr @knxip_error, align 1
  %109 = load ptr, ptr %12, align 8
  call void (ptr, i32, ptr, ...) @col_prepend_fstr(ptr noundef %109, i32 noundef 25, ptr noundef @.str.332)
  br label %110

110:                                              ; preds = %108, %105
  %111 = load ptr, ptr %13, align 8
  call void (ptr, ptr, ...) @proto_item_prepend_text(ptr noundef %111, ptr noundef @.str.332)
  br label %112

112:                                              ; preds = %110, %102
  %113 = load i32, ptr %10, align 4
  call void @llvm.lifetime.end.p0(i64 1, ptr %15) #9
  call void @llvm.lifetime.end.p0(i64 8, ptr %14) #9
  call void @llvm.lifetime.end.p0(i64 8, ptr %13) #9
  call void @llvm.lifetime.end.p0(i64 8, ptr %12) #9
  call void @llvm.lifetime.end.p0(i64 1, ptr %11) #9
  call void @llvm.lifetime.end.p0(i64 4, ptr %10) #9
  call void @llvm.lifetime.end.p0(i64 4, ptr %9) #9
  ret i32 %113
}