; Function Attrs: null_pointer_is_valid sspstrong uwtable
define internal noundef i32 @dissect_cemi(ptr noundef %0, ptr noundef %1, ptr noundef %2, ptr readnone captures(none) %3) #0 {
  %5 = alloca i32, align 4
  %6 = alloca i8, align 1
  %7 = alloca i32, align 4
  %8 = alloca i8, align 1
  %9 = alloca i8, align 1
  call void @llvm.lifetime.start.p0(i64 4, ptr nonnull %7) #10
  %10 = tail call i32 @tvb_captured_length_remaining(ptr noundef %0, i32 noundef 0)
  call void @llvm.lifetime.start.p0(i64 1, ptr nonnull %8) #10
  store i8 0, ptr %8, align 1
  %11 = getelementptr inbounds nuw i8, ptr %1, i64 8
  %12 = load ptr, ptr %11, align 8
  %13 = load i32, ptr @proto_cemi, align 4
  %14 = tail call ptr @proto_tree_add_item(ptr noundef %2, i32 noundef %13, ptr noundef %0, i32 noundef 0, i32 noundef %10, i32 noundef 0)
  %15 = load i32, ptr @ett_cemi, align 4
  %16 = tail call ptr @proto_item_add_subtree(ptr noundef %14, i32 noundef %15)
  call void @llvm.lifetime.start.p0(i64 1, ptr nonnull %9) #10
  store i8 2, ptr %9, align 1
  tail call void @col_append_str(ptr noundef %12, i32 noundef 25, ptr noundef nonnull @.str.327)
  tail call void (ptr, ptr, ...) @proto_item_set_text(ptr noundef %14, ptr noundef nonnull @.str.102)
  %17 = icmp slt i32 %10, 1
  br i1 %17, label %18, label %20

18:                                               ; preds = %4
  %19 = tail call ptr (ptr, ptr, ptr, ptr, ...) @expert_add_info_format(ptr noundef %1, ptr noundef %14, ptr noundef nonnull @ei_knxip_error, ptr noundef nonnull @.str.328)
  store i8 1, ptr %8, align 1
  br label %56

20:                                               ; preds = %4
  %21 = tail call zeroext i8 @tvb_get_uint8(ptr noundef %0, i32 noundef 0)
  %22 = zext i8 %21 to i32
  %23 = tail call ptr @try_val_to_str(i32 noundef %22, ptr noundef nonnull @mc_vals)
  %.not = icmp eq ptr %23, null
  br i1 %.not, label %24, label %25

24:                                               ; preds = %20
  tail call void @col_append_str(ptr noundef %12, i32 noundef 25, ptr noundef nonnull @.str.102)
  store i8 0, ptr %9, align 1
  br label %56

25:                                               ; preds = %20
  tail call void @col_append_str(ptr noundef %12, i32 noundef 25, ptr noundef nonnull %23)
  tail call void (ptr, ptr, ...) @proto_item_append_text(ptr noundef %14, ptr noundef nonnull @.str.329, ptr noundef nonnull %23)
  %26 = load i32, ptr @hf_cemi_mc, align 4
  %27 = tail call ptr @proto_tree_add_item(ptr noundef %16, i32 noundef %26, ptr noundef %0, i32 noundef 0, i32 noundef 1, i32 noundef 0)
  store i32 1, ptr %7, align 4
  %28 = icmp ugt i8 %21, -17
  br i1 %28, label %29, label %55

29:                                               ; preds = %25
  %30 = load ptr, ptr %11, align 8
  call void @llvm.lifetime.start.p0(i64 4, ptr nonnull %5) #10
  store i32 1, ptr %5, align 4
  call void @llvm.lifetime.start.p0(i64 1, ptr nonnull %6) #10
  store i8 0, ptr %6, align 1
  switch i8 %21, label %dissect_cemi_mgmt_packet.exit [
    i8 -4, label %36
    i8 -11, label %31
    i8 -5, label %32
    i8 -10, label %33
    i8 -9, label %33
    i8 -8, label %34
    i8 -7, label %34
    i8 -6, label %34
    i8 -15, label %35
    i8 -16, label %35
  ]

31:                                               ; preds = %29
  br label %36

32:                                               ; preds = %29
  br label %36

33:                                               ; preds = %29, %29
  br label %36

34:                                               ; preds = %29, %29, %29
  br label %36

35:                                               ; preds = %29, %29
  br label %dissect_cemi_mgmt_packet.exit

36:                                               ; preds = %34, %33, %32, %31, %29
  %.ph.i = phi i1 [ true, %33 ], [ true, %31 ], [ true, %32 ], [ false, %34 ], [ true, %29 ]
  %.0.ph.i = phi i8 [ 2, %33 ], [ 1, %31 ], [ 3, %32 ], [ 2, %34 ], [ 0, %29 ]
  %37 = call fastcc zeroext i16 @dissect_ot(ptr noundef %0, ptr noundef %1, ptr noundef %14, ptr noundef %16, ptr noundef nonnull %5, i32 noundef range(i32 1, -2147483648) %10, ptr noundef nonnull %6)
  %38 = icmp samesign ult i32 %10, 4
  br i1 %38, label %39, label %42

39:                                               ; preds = %36
  %40 = load i32, ptr %5, align 4
  %41 = call ptr (ptr, ptr, ptr, ptr, i32, i32, ptr, ...) @proto_tree_add_expert_format(ptr noundef %16, ptr noundef %1, ptr noundef nonnull @ei_knxip_error, ptr noundef %0, i32 noundef %40, i32 noundef 0, ptr noundef nonnull @.str.334)
  store i8 1, ptr %6, align 1
  br label %49

42:                                               ; preds = %36
  %43 = call zeroext i8 @tvb_get_uint8(ptr noundef %0, i32 noundef 3)
  %.not.i = icmp eq i8 %43, 1
  br i1 %.not.i, label %46, label %44

44:                                               ; preds = %42
  %45 = zext i8 %43 to i32
  call void (ptr, i32, ptr, ...) @col_append_fstr(ptr noundef %30, i32 noundef 25, ptr noundef nonnull @.str.335, i32 noundef %45)
  call void (ptr, ptr, ...) @proto_item_append_text(ptr noundef %14, ptr noundef nonnull @.str.336, i32 noundef %45)
  br label %46

46:                                               ; preds = %44, %42
  %47 = load i32, ptr @hf_cemi_oi, align 4
  %48 = call ptr @proto_tree_add_item(ptr noundef %16, i32 noundef %47, ptr noundef %0, i32 noundef 3, i32 noundef 1, i32 noundef 0)
  store i32 4, ptr %5, align 4
  br label %49

49:                                               ; preds = %46, %39
  %50 = zext i16 %37 to i32
  %51 = call fastcc zeroext i8 @dissect_pid(ptr noundef %0, ptr noundef %1, ptr noundef %14, ptr noundef %16, ptr noundef nonnull %5, i32 noundef range(i32 1, -2147483648) %10, i32 noundef %50, i8 noundef zeroext 1, ptr noundef nonnull %6)
  br i1 %.ph.i, label %52, label %dissect_cemi_mgmt_packet.exit

52:                                               ; preds = %49
  call fastcc void @dissect_range(ptr noundef %0, ptr noundef %1, ptr noundef %14, ptr noundef %16, ptr noundef nonnull %5, i32 noundef range(i32 1, -2147483648) %10, i8 noundef zeroext %.0.ph.i, ptr noundef nonnull %6)
  br label %dissect_cemi_mgmt_packet.exit

dissect_cemi_mgmt_packet.exit:                    ; preds = %29, %35, %49, %52
  %.2.i = phi i8 [ 0, %52 ], [ %.0.ph.i, %49 ], [ 2, %29 ], [ 0, %35 ]
  %53 = load i32, ptr %5, align 4
  store i8 %.2.i, ptr %9, align 1
  %54 = load i8, ptr %6, align 1
  store i8 %54, ptr %8, align 1
  call void @llvm.lifetime.end.p0(i64 1, ptr nonnull %6) #10
  call void @llvm.lifetime.end.p0(i64 4, ptr nonnull %5) #10
  br label %56

55:                                               ; preds = %25
  call fastcc void @dissect_cemi_link_layer(ptr noundef %0, ptr noundef %1, ptr noundef %2, ptr noundef %14, ptr noundef %16, i8 noundef zeroext %21, ptr noundef nonnull %7, i32 noundef %10, ptr noundef nonnull %9, ptr noundef nonnull %8)
  %.pre = load i32, ptr %7, align 4
  br label %56

56:                                               ; preds = %24, %55, %dissect_cemi_mgmt_packet.exit, %18
  %57 = phi i32 [ 0, %24 ], [ %.pre, %55 ], [ %53, %dissect_cemi_mgmt_packet.exit ], [ 0, %18 ]
  %58 = icmp slt i32 %57, %10
  br i1 %58, label %59, label %65

59:                                               ; preds = %56
  %60 = sub i32 %10, %57
  %61 = call fastcc ptr @proto_tree_add_data(ptr noundef %16, ptr noundef %0, i32 noundef %57, i32 noundef %60, ptr noundef %12, ptr noundef %14, ptr noundef nonnull @.str, ptr noundef nonnull @.str.330, ptr noundef nonnull @.str.331)
  %62 = load i8, ptr %9, align 1
  %.not49 = icmp eq i8 %62, 0
  br i1 %.not49, label %63, label %65

63:                                               ; preds = %59
  call void (ptr, ptr, ...) @proto_item_prepend_text(ptr noundef %61, ptr noundef nonnull @.str.332)
  %64 = call ptr (ptr, ptr, ptr, ptr, ...) @expert_add_info_format(ptr noundef %1, ptr noundef %61, ptr noundef nonnull @ei_knxip_error, ptr noundef nonnull @.str.333)
  store i8 1, ptr %8, align 1
  br label %65

65:                                               ; preds = %59, %63, %56
  %66 = load i8, ptr %8, align 1
  %.not50 = icmp eq i8 %66, 0
  br i1 %.not50, label %71, label %67

67:                                               ; preds = %65
  %68 = load i8, ptr @knxip_error, align 1
  %.not51 = icmp eq i8 %68, 0
  br i1 %.not51, label %69, label %70

69:                                               ; preds = %67
  store i8 1, ptr @knxip_error, align 1
  call void (ptr, i32, ptr, ...) @col_prepend_fstr(ptr noundef %12, i32 noundef 25, ptr noundef nonnull @.str.332)
  br label %70

70:                                               ; preds = %69, %67
  call void (ptr, ptr, ...) @proto_item_prepend_text(ptr noundef %14, ptr noundef nonnull @.str.332)
  br label %71

71:                                               ; preds = %70, %65
  call void @llvm.lifetime.end.p0(i64 1, ptr nonnull %9) #10
  call void @llvm.lifetime.end.p0(i64 1, ptr nonnull %8) #10
  call void @llvm.lifetime.end.p0(i64 4, ptr nonnull %7) #10
  ret i32 %10
}